Archive member included because of file (symbol)

/cygdrive/d/Pendrive/GPS/Custamized_App_08_09_17/lib/libsys_ext.a(atoi.o)
                              /cygdrive/d/Pendrive/GPS/Custamized_App_08_09_17/build/atHandle.o (atoi)
/cygdrive/d/Pendrive/GPS/Custamized_App_08_09_17/lib/libsys_ext.a(ctype.o)
                              /cygdrive/d/Pendrive/GPS/Custamized_App_08_09_17/build/atHandle.o (_ctype)
/cygdrive/d/Pendrive/GPS/Custamized_App_08_09_17/lib/libsys_ext.a(inet.o)
                              /cygdrive/d/Pendrive/GPS/Custamized_App_08_09_17/build/gprsHandle.o (htons)
/cygdrive/d/Pendrive/GPS/Custamized_App_08_09_17/lib/libsys_ext.a(memcpy.o)
                              /cygdrive/d/Pendrive/GPS/Custamized_App_08_09_17/build/app.o (memcpy)
/cygdrive/d/Pendrive/GPS/Custamized_App_08_09_17/lib/libsys_ext.a(memset.o)
                              /cygdrive/d/Pendrive/GPS/Custamized_App_08_09_17/build/app.o (memset)
/cygdrive/d/Pendrive/GPS/Custamized_App_08_09_17/lib/libsys_ext.a(strchr.o)
                              /cygdrive/d/Pendrive/GPS/Custamized_App_08_09_17/build/atHandle.o (strchr)
/cygdrive/d/Pendrive/GPS/Custamized_App_08_09_17/lib/libsys_ext.a(strcmp.o)
                              /cygdrive/d/Pendrive/GPS/Custamized_App_08_09_17/build/gps.o (strcmp)
/cygdrive/d/Pendrive/GPS/Custamized_App_08_09_17/lib/libsys_ext.a(strcpy.o)
                              /cygdrive/d/Pendrive/GPS/Custamized_App_08_09_17/build/atHandle.o (strcpy)
/cygdrive/d/Pendrive/GPS/Custamized_App_08_09_17/lib/libsys_ext.a(strlen.o)
                              /cygdrive/d/Pendrive/GPS/Custamized_App_08_09_17/build/app.o (strlen)
/cygdrive/d/Pendrive/GPS/Custamized_App_08_09_17/lib/libsys_ext.a(strncmp.o)
                              /cygdrive/d/Pendrive/GPS/Custamized_App_08_09_17/build/app.o (strncmp)
/cygdrive/d/Pendrive/GPS/Custamized_App_08_09_17/lib/libsys_ext.a(strncpy.o)
                              /cygdrive/d/Pendrive/GPS/Custamized_App_08_09_17/build/app.o (strncpy)
/cygdrive/d/Pendrive/GPS/Custamized_App_08_09_17/lib/libsys_ext.a(strstr.o)
                              /cygdrive/d/Pendrive/GPS/Custamized_App_08_09_17/build/atHandle.o (strstr)
/cygdrive/d/Pendrive/GPS/Custamized_App_08_09_17/lib/libsys_ext.a(strtok.o)
                              /cygdrive/d/Pendrive/GPS/Custamized_App_08_09_17/build/gps.o (strtok)
/cygdrive/d/Pendrive/GPS/Custamized_App_08_09_17/lib/libsys_ext.a(vsprintf.o)
                              /cygdrive/d/Pendrive/GPS/Custamized_App_08_09_17/build/app.o (vsprintf)
/cygdrive/d/Pendrive/GPS/Custamized_App_08_09_17/tool/libgcc.a(_addsub_sf.o)
                              /cygdrive/d/Pendrive/GPS/Custamized_App_08_09_17/build/gps.o (__addsf3)
/cygdrive/d/Pendrive/GPS/Custamized_App_08_09_17/tool/libgcc.a(_mul_sf.o)
                              /cygdrive/d/Pendrive/GPS/Custamized_App_08_09_17/build/gps.o (__mulsf3)
/cygdrive/d/Pendrive/GPS/Custamized_App_08_09_17/tool/libgcc.a(_div_sf.o)
                              /cygdrive/d/Pendrive/GPS/Custamized_App_08_09_17/build/gps.o (__divsf3)
/cygdrive/d/Pendrive/GPS/Custamized_App_08_09_17/tool/libgcc.a(_si_to_sf.o)
                              /cygdrive/d/Pendrive/GPS/Custamized_App_08_09_17/build/gps.o (__floatsisf)
/cygdrive/d/Pendrive/GPS/Custamized_App_08_09_17/tool/libgcc.a(_thenan_sf.o)
                              /cygdrive/d/Pendrive/GPS/Custamized_App_08_09_17/tool/libgcc.a(_addsub_sf.o) (__thenan_sf)
/cygdrive/d/Pendrive/GPS/Custamized_App_08_09_17/tool/libgcc.a(_clzsi2.o)
                              /cygdrive/d/Pendrive/GPS/Custamized_App_08_09_17/tool/libgcc.a(_si_to_sf.o) (__clzsi2)
/cygdrive/d/Pendrive/GPS/Custamized_App_08_09_17/tool/libgcc.a(_pack_sf.o)
                              /cygdrive/d/Pendrive/GPS/Custamized_App_08_09_17/tool/libgcc.a(_addsub_sf.o) (__pack_f)
/cygdrive/d/Pendrive/GPS/Custamized_App_08_09_17/tool/libgcc.a(_unpack_sf.o)
                              /cygdrive/d/Pendrive/GPS/Custamized_App_08_09_17/tool/libgcc.a(_addsub_sf.o) (__unpack_f)
/cygdrive/d/Pendrive/GPS/Custamized_App_08_09_17/tool/libgcc.a(_clz.o)
                              /cygdrive/d/Pendrive/GPS/Custamized_App_08_09_17/tool/libgcc.a(_clzsi2.o) (__clz_tab)
/cygdrive/d/Pendrive/GPS/Custamized_App_08_09_17/lib/sys_init.lib(sys_callback.o)
                              (--whole-archive)
/cygdrive/d/Pendrive/GPS/Custamized_App_08_09_17/lib/sys_init.lib(sys_services.o)
                              (--whole-archive)

Allocating common symbols
Common symbol       size              file

wdtCount            0x4               /cygdrive/d/Pendrive/GPS/Custamized_App_08_09_17/build/app.o
IMEI_NUMBER         0x10              /cygdrive/d/Pendrive/GPS/Custamized_App_08_09_17/build/app.o
atHandler           0x4               /cygdrive/d/Pendrive/GPS/Custamized_App_08_09_17/build/atHandle.o
Task_smsHandle      0x4               /cygdrive/d/Pendrive/GPS/Custamized_App_08_09_17/build/app.o
gotPPPip            0x1               /cygdrive/d/Pendrive/GPS/Custamized_App_08_09_17/build/atHandle.o
tmpSize             0x4               /cygdrive/d/Pendrive/GPS/Custamized_App_08_09_17/build/app.o
udpSockSendBuffer   0x800             /cygdrive/d/Pendrive/GPS/Custamized_App_08_09_17/build/gprsHandle.o
tcpSockRcvBuff      0x800             /cygdrive/d/Pendrive/GPS/Custamized_App_08_09_17/build/gprsHandle.o
wdtFailureCount     0x1               /cygdrive/d/Pendrive/GPS/Custamized_App_08_09_17/build/app.o
pppIp               0x20              /cygdrive/d/Pendrive/GPS/Custamized_App_08_09_17/build/atHandle.o
lowSigStrength      0x1               /cygdrive/d/Pendrive/GPS/Custamized_App_08_09_17/build/atHandle.o
sigStrength         0x1               /cygdrive/d/Pendrive/GPS/Custamized_App_08_09_17/build/atHandle.o
modemTemperature    0x4               /cygdrive/d/Pendrive/GPS/Custamized_App_08_09_17/build/atHandle.o
sockTcp             0x4               /cygdrive/d/Pendrive/GPS/Custamized_App_08_09_17/build/gprsHandle.o
secGlobal           0x4               /cygdrive/d/Pendrive/GPS/Custamized_App_08_09_17/build/app.o
Task_GPS_Handle     0x4               /cygdrive/d/Pendrive/GPS/Custamized_App_08_09_17/build/app.o
dbgBuf              0x400             /cygdrive/d/Pendrive/GPS/Custamized_App_08_09_17/build/app.o
smsReadStr          0x100             /cygdrive/d/Pendrive/GPS/Custamized_App_08_09_17/build/atHandle.o
smsWriteStr         0x200             /cygdrive/d/Pendrive/GPS/Custamized_App_08_09_17/build/atHandle.o
tmpTimeBuf          0x20              /cygdrive/d/Pendrive/GPS/Custamized_App_08_09_17/build/gprsHandle.o
tempSerRespLen      0x4               /cygdrive/d/Pendrive/GPS/Custamized_App_08_09_17/build/app.o
tmpSlen             0x4               /cygdrive/d/Pendrive/GPS/Custamized_App_08_09_17/build/app.o
flag1               0x8               /cygdrive/d/Pendrive/GPS/Custamized_App_08_09_17/build/app.o
tmpBuff1            0x40              /cygdrive/d/Pendrive/GPS/Custamized_App_08_09_17/build/atHandle.o
Task_GpsPostHandle  0x4               /cygdrive/d/Pendrive/GPS/Custamized_App_08_09_17/build/app.o
signalStrength      0x4               /cygdrive/d/Pendrive/GPS/Custamized_App_08_09_17/build/atHandle.o
smsSendBuff         0x200             /cygdrive/d/Pendrive/GPS/Custamized_App_08_09_17/build/atHandle.o
smsMsgBuffer        0x200             /cygdrive/d/Pendrive/GPS/Custamized_App_08_09_17/build/app.o
fotaTimeOutVar      0x4               /cygdrive/d/Pendrive/GPS/Custamized_App_08_09_17/build/app.o
gprsAttached        0x1               /cygdrive/d/Pendrive/GPS/Custamized_App_08_09_17/build/atHandle.o
curSockBuffLen      0x4               /cygdrive/d/Pendrive/GPS/Custamized_App_08_09_17/build/app.o
tcpSockSendBuffer   0x800             /cygdrive/d/Pendrive/GPS/Custamized_App_08_09_17/build/gprsHandle.o
rtcTime             0x7               /cygdrive/d/Pendrive/GPS/Custamized_App_08_09_17/build/app.o
simRegistered       0x1               /cygdrive/d/Pendrive/GPS/Custamized_App_08_09_17/build/atHandle.o
sockUdp             0x4               /cygdrive/d/Pendrive/GPS/Custamized_App_08_09_17/build/gprsHandle.o
sendFrameBuffer     0x800             /cygdrive/d/Pendrive/GPS/Custamized_App_08_09_17/build/app.o
tempSerRespLen1     0x4               /cygdrive/d/Pendrive/GPS/Custamized_App_08_09_17/build/app.o
socketConeccted     0x1               /cygdrive/d/Pendrive/GPS/Custamized_App_08_09_17/build/gprsHandle.o
network             0x4               /cygdrive/d/Pendrive/GPS/Custamized_App_08_09_17/build/atHandle.o
sockRecvBuffer      0x800             /cygdrive/d/Pendrive/GPS/Custamized_App_08_09_17/build/gprsHandle.o
smsSenderMob        0x20              /cygdrive/d/Pendrive/GPS/Custamized_App_08_09_17/build/atHandle.o
modemConfig         0x233             /cygdrive/d/Pendrive/GPS/Custamized_App_08_09_17/build/app.o
gps_Cordinates      0x5a              /cygdrive/d/Pendrive/GPS/Custamized_App_08_09_17/build/gps.o
appUdpAddr          0x8               /cygdrive/d/Pendrive/GPS/Custamized_App_08_09_17/build/gprsHandle.o
prevWdtCount        0x4               /cygdrive/d/Pendrive/GPS/Custamized_App_08_09_17/build/app.o
smsReadBuff         0x100             /cygdrive/d/Pendrive/GPS/Custamized_App_08_09_17/build/atHandle.o
Task_Main           0x4               /cygdrive/d/Pendrive/GPS/Custamized_App_08_09_17/build/app.o
recvFrameBuffer     0x800             /cygdrive/d/Pendrive/GPS/Custamized_App_08_09_17/build/app.o
status              0x1               /cygdrive/d/Pendrive/GPS/Custamized_App_08_09_17/build/app.o
atCmd               0x80              /cygdrive/d/Pendrive/GPS/Custamized_App_08_09_17/build/app.o
socConSuccess104    0x1               /cygdrive/d/Pendrive/GPS/Custamized_App_08_09_17/build/gprsHandle.o

Discarded input sections

 .reginfo       0x0000000000000000       0x18 /cygdrive/d/Pendrive/GPS/Custamized_App_08_09_17/build/atHandle.o
 .reginfo       0x0000000000000000       0x18 /cygdrive/d/Pendrive/GPS/Custamized_App_08_09_17/build/deviceConfig.o
 .reginfo       0x0000000000000000       0x18 /cygdrive/d/Pendrive/GPS/Custamized_App_08_09_17/build/gprsHandle.o
 .reginfo       0x0000000000000000       0x18 /cygdrive/d/Pendrive/GPS/Custamized_App_08_09_17/build/gps.o
 .reginfo       0x0000000000000000       0x18 /cygdrive/d/Pendrive/GPS/Custamized_App_08_09_17/lib/libsys_ext.a(atoi.o)
 .reginfo       0x0000000000000000       0x18 /cygdrive/d/Pendrive/GPS/Custamized_App_08_09_17/lib/libsys_ext.a(ctype.o)
 .reginfo       0x0000000000000000       0x18 /cygdrive/d/Pendrive/GPS/Custamized_App_08_09_17/lib/libsys_ext.a(inet.o)
 .reginfo       0x0000000000000000       0x18 /cygdrive/d/Pendrive/GPS/Custamized_App_08_09_17/lib/libsys_ext.a(memcpy.o)
 .reginfo       0x0000000000000000       0x18 /cygdrive/d/Pendrive/GPS/Custamized_App_08_09_17/lib/libsys_ext.a(memset.o)
 .reginfo       0x0000000000000000       0x18 /cygdrive/d/Pendrive/GPS/Custamized_App_08_09_17/lib/libsys_ext.a(strchr.o)
 .reginfo       0x0000000000000000       0x18 /cygdrive/d/Pendrive/GPS/Custamized_App_08_09_17/lib/libsys_ext.a(strcmp.o)
 .reginfo       0x0000000000000000       0x18 /cygdrive/d/Pendrive/GPS/Custamized_App_08_09_17/lib/libsys_ext.a(strcpy.o)
 .reginfo       0x0000000000000000       0x18 /cygdrive/d/Pendrive/GPS/Custamized_App_08_09_17/lib/libsys_ext.a(strlen.o)
 .reginfo       0x0000000000000000       0x18 /cygdrive/d/Pendrive/GPS/Custamized_App_08_09_17/lib/libsys_ext.a(strncmp.o)
 .reginfo       0x0000000000000000       0x18 /cygdrive/d/Pendrive/GPS/Custamized_App_08_09_17/lib/libsys_ext.a(strncpy.o)
 .reginfo       0x0000000000000000       0x18 /cygdrive/d/Pendrive/GPS/Custamized_App_08_09_17/lib/libsys_ext.a(strstr.o)
 .reginfo       0x0000000000000000       0x18 /cygdrive/d/Pendrive/GPS/Custamized_App_08_09_17/lib/libsys_ext.a(strtok.o)
 .reginfo       0x0000000000000000       0x18 /cygdrive/d/Pendrive/GPS/Custamized_App_08_09_17/lib/libsys_ext.a(vsprintf.o)
 .reginfo       0x0000000000000000       0x18 /cygdrive/d/Pendrive/GPS/Custamized_App_08_09_17/tool/libgcc.a(_addsub_sf.o)
 .reginfo       0x0000000000000000       0x18 /cygdrive/d/Pendrive/GPS/Custamized_App_08_09_17/tool/libgcc.a(_mul_sf.o)
 .reginfo       0x0000000000000000       0x18 /cygdrive/d/Pendrive/GPS/Custamized_App_08_09_17/tool/libgcc.a(_div_sf.o)
 .reginfo       0x0000000000000000       0x18 /cygdrive/d/Pendrive/GPS/Custamized_App_08_09_17/tool/libgcc.a(_si_to_sf.o)
 .reginfo       0x0000000000000000       0x18 /cygdrive/d/Pendrive/GPS/Custamized_App_08_09_17/tool/libgcc.a(_thenan_sf.o)
 .reginfo       0x0000000000000000       0x18 /cygdrive/d/Pendrive/GPS/Custamized_App_08_09_17/tool/libgcc.a(_clzsi2.o)
 .reginfo       0x0000000000000000       0x18 /cygdrive/d/Pendrive/GPS/Custamized_App_08_09_17/tool/libgcc.a(_pack_sf.o)
 .reginfo       0x0000000000000000       0x18 /cygdrive/d/Pendrive/GPS/Custamized_App_08_09_17/tool/libgcc.a(_unpack_sf.o)
 .reginfo       0x0000000000000000       0x18 /cygdrive/d/Pendrive/GPS/Custamized_App_08_09_17/tool/libgcc.a(_clz.o)
 .reginfo       0x0000000000000000       0x18 /cygdrive/d/Pendrive/GPS/Custamized_App_08_09_17/lib/sys_init.lib(sys_callback.o)
 .reginfo       0x0000000000000000       0x18 /cygdrive/d/Pendrive/GPS/Custamized_App_08_09_17/lib/sys_init.lib(sys_services.o)

Memory Configuration

Name             Origin             Length             Attributes
*default*        0x0000000000000000 0xffffffffffffffff

Linker script and memory map

LOAD /cygdrive/d/Pendrive/GPS/Custamized_App_08_09_17/build/app.o
LOAD /cygdrive/d/Pendrive/GPS/Custamized_App_08_09_17/build/atHandle.o
LOAD /cygdrive/d/Pendrive/GPS/Custamized_App_08_09_17/build/deviceConfig.o
LOAD /cygdrive/d/Pendrive/GPS/Custamized_App_08_09_17/build/gprsHandle.o
LOAD /cygdrive/d/Pendrive/GPS/Custamized_App_08_09_17/build/gps.o
LOAD /cygdrive/d/Pendrive/GPS/Custamized_App_08_09_17/lib/libsys_ext.a
LOAD /cygdrive/d/Pendrive/GPS/Custamized_App_08_09_17/tool/libgcc.a
LOAD /cygdrive/d/Pendrive/GPS/Custamized_App_08_09_17/lib/sys_init.lib
                0x0000000088250000                . = 0x88250000
                0x0000000088250000                _app_start = .

.sys_vt         0x0000000088250000       0x20
 *(.SYS_VVT)
 .SYS_VVT       0x0000000088250000       0x20 /cygdrive/d/Pendrive/GPS/Custamized_App_08_09_17/lib/sys_init.lib(sys_callback.o)
                0x0000000088250000                __sys_vt__

.app_code       0x0000000088250020     0x5324
 *(.text)
 .text          0x0000000088250020      0x6e4 /cygdrive/d/Pendrive/GPS/Custamized_App_08_09_17/build/app.o
                0x0000000088250021                pppfcs16
                0x0000000088250061                startWdtTimer
                0x0000000088250065                delayInms
                0x0000000088250079                powerCycle
                0x00000000882500bd                printf2
                0x0000000088250125                printf1
                0x000000008825018d                initGpioPins
                0x00000000882501c1                SetBaudRate
                0x00000000882502a5                gpsDataPostTask
                0x0000000088250301                gpsHandlingTask
                0x0000000088250461                mainTask
                0x0000000088250665                uart_in
 .text          0x0000000088250704     0x1948 /cygdrive/d/Pendrive/GPS/Custamized_App_08_09_17/build/atHandle.o
                0x0000000088250705                validateUserInput
                0x0000000088250ad1                sendCommand
                0x0000000088250b31                ping
                0x0000000088250d55                deleteIdxMsg
                0x0000000088250da9                sendSMS
                0x0000000088250e7d                at_in
                0x0000000088251565                chkSimRegistration
                0x0000000088251755                procReceivedSmsCmd
                0x0000000088251ce9                readSMS
 .text          0x000000008825204c      0x2fc /cygdrive/d/Pendrive/GPS/Custamized_App_08_09_17/build/deviceConfig.o
                0x000000008825204d                readModemConfigFile
                0x0000000088252109                writeModemConfigFile
                0x00000000882521e5                fillDefaultModemConfig
 .text          0x0000000088252348      0x7f0 /cygdrive/d/Pendrive/GPS/Custamized_App_08_09_17/build/gprsHandle.o
                0x0000000088252349                getIpAddr
                0x0000000088252405                postGpsInfo
                0x0000000088252409                sendPacket
                0x000000008825242d                closeSocket
                0x000000008825244d                deactivateGprs
                0x000000008825247d                gprsStatus
                0x00000000882524bd                checkGprsAttached
                0x0000000088252535                sockRecv
                0x0000000088252581                sig_in
                0x00000000882526a1                sockCreate
                0x00000000882529a5                getPppIP
 .text          0x0000000088252b38      0x5cc /cygdrive/d/Pendrive/GPS/Custamized_App_08_09_17/build/gps.o
                0x0000000088252b39                initGPSParams
                0x0000000088252c01                strtoint_n
                0x0000000088252c45                _float_fraction
                0x0000000088252cbd                strtoflt
                0x0000000088252db9                initializeGPS_FIbocom
                0x0000000088252e95                initializeGPS_LS2003C2R
                0x0000000088252ef5                getGPSSpeed
                0x0000000088252f89                getGPSCordinates
 .text          0x0000000088253104       0x34 /cygdrive/d/Pendrive/GPS/Custamized_App_08_09_17/lib/libsys_ext.a(atoi.o)
                0x0000000088253105                atoi
 .text          0x0000000088253138       0x40 /cygdrive/d/Pendrive/GPS/Custamized_App_08_09_17/lib/libsys_ext.a(ctype.o)
                0x0000000088253139                __tolower
                0x0000000088253159                __toupper
 .text          0x0000000088253178       0x60 /cygdrive/d/Pendrive/GPS/Custamized_App_08_09_17/lib/libsys_ext.a(inet.o)
                0x0000000088253179                htons
                0x0000000088253189                ntohs
                0x00000000882531a1                htonl
                0x00000000882531c5                ntohl
 .text          0x00000000882531d8      0x1ac /cygdrive/d/Pendrive/GPS/Custamized_App_08_09_17/lib/libsys_ext.a(memcpy.o)
                0x00000000882531d9                memcpy
 .text          0x0000000088253384      0x1f4 /cygdrive/d/Pendrive/GPS/Custamized_App_08_09_17/lib/libsys_ext.a(memset.o)
                0x0000000088253385                memset
 .text          0x0000000088253578       0x40 /cygdrive/d/Pendrive/GPS/Custamized_App_08_09_17/lib/libsys_ext.a(strchr.o)
                0x0000000088253579                strchr
                0x000000008825359d                strrchr
 .text          0x00000000882535b8       0x20 /cygdrive/d/Pendrive/GPS/Custamized_App_08_09_17/lib/libsys_ext.a(strcmp.o)
                0x00000000882535b9                strcmp
 .text          0x00000000882535d8       0x18 /cygdrive/d/Pendrive/GPS/Custamized_App_08_09_17/lib/libsys_ext.a(strcpy.o)
                0x00000000882535d9                strcpy
 .text          0x00000000882535f0       0x38 /cygdrive/d/Pendrive/GPS/Custamized_App_08_09_17/lib/libsys_ext.a(strlen.o)
                0x00000000882535f1                strlen
                0x0000000088253605                strnlen
 .text          0x0000000088253628       0x24 /cygdrive/d/Pendrive/GPS/Custamized_App_08_09_17/lib/libsys_ext.a(strncmp.o)
                0x0000000088253629                strncmp
 .text          0x000000008825364c       0x94 /cygdrive/d/Pendrive/GPS/Custamized_App_08_09_17/lib/libsys_ext.a(strncpy.o)
                0x000000008825364d                strncpy
 .text          0x00000000882536e0       0x54 /cygdrive/d/Pendrive/GPS/Custamized_App_08_09_17/lib/libsys_ext.a(strstr.o)
                0x00000000882536e1                strstr
 .text          0x0000000088253734       0xc0 /cygdrive/d/Pendrive/GPS/Custamized_App_08_09_17/lib/libsys_ext.a(strtok.o)
                0x0000000088253735                strtok_r
                0x0000000088253791                strtok
 .text          0x00000000882537f4      0x774 /cygdrive/d/Pendrive/GPS/Custamized_App_08_09_17/lib/libsys_ext.a(vsprintf.o)
                0x00000000882539d9                vsnprintf
                0x0000000088253f11                vsprintf
                0x0000000088253f2d                snprintf
                0x0000000088253f49                sprintf
 .text          0x0000000088253f68      0x1c0 /cygdrive/d/Pendrive/GPS/Custamized_App_08_09_17/tool/libgcc.a(_addsub_sf.o)
                0x00000000882540a9                __subsf3
                0x00000000882540ed                __addsf3
 .text          0x0000000088254128       0xfc /cygdrive/d/Pendrive/GPS/Custamized_App_08_09_17/tool/libgcc.a(_mul_sf.o)
                0x0000000088254129                __mulsf3
 .text          0x0000000088254224       0xc4 /cygdrive/d/Pendrive/GPS/Custamized_App_08_09_17/tool/libgcc.a(_div_sf.o)
                0x0000000088254225                __divsf3
 .text          0x00000000882542e8       0x5c /cygdrive/d/Pendrive/GPS/Custamized_App_08_09_17/tool/libgcc.a(_si_to_sf.o)
                0x00000000882542e9                __floatsisf
 .text          0x0000000088254344        0x0 /cygdrive/d/Pendrive/GPS/Custamized_App_08_09_17/tool/libgcc.a(_thenan_sf.o)
 .text          0x0000000088254344       0x3c /cygdrive/d/Pendrive/GPS/Custamized_App_08_09_17/tool/libgcc.a(_clzsi2.o)
                0x0000000088254345                __clzsi2
 .text          0x0000000088254380       0xc4 /cygdrive/d/Pendrive/GPS/Custamized_App_08_09_17/tool/libgcc.a(_pack_sf.o)
                0x0000000088254381                __pack_f
 .text          0x0000000088254444       0x7c /cygdrive/d/Pendrive/GPS/Custamized_App_08_09_17/tool/libgcc.a(_unpack_sf.o)
                0x0000000088254445                __unpack_f
 .text          0x00000000882544c0        0x0 /cygdrive/d/Pendrive/GPS/Custamized_App_08_09_17/tool/libgcc.a(_clz.o)
 .text          0x00000000882544c0      0x138 /cygdrive/d/Pendrive/GPS/Custamized_App_08_09_17/lib/sys_init.lib(sys_callback.o)
                0x00000000882544c1                __sys_init__
 .text          0x00000000882545f8      0xd4c /cygdrive/d/Pendrive/GPS/Custamized_App_08_09_17/lib/sys_init.lib(sys_services.o)
                0x00000000882545f9                sys_uart_output
                0x0000000088254631                sys_vsnprintf
                0x0000000088254659                sys_services_setup
                0x0000000088254669                sys_taskSend
                0x0000000088254691                sys_taskSleep
                0x00000000882546b9                sys_at_send
                0x00000000882546f5                file_name_check
                0x0000000088254799                sys_file_seek
                0x00000000882547cd                sys_file_read
                0x000000008825480d                sys_file_write
                0x000000008825484d                sys_file_close
                0x0000000088254885                sys_file_delete
                0x00000000882548c9                sys_file_getSize
                0x00000000882548f9                sys_file_flush
                0x0000000088254945                sys_file_EOF
                0x0000000088254975                sys_file_clear
                0x00000000882549ad                sys_sem_new
                0x00000000882549d9                sys_sem_free
                0x00000000882549f9                sys_sem_wait
                0x0000000088254a19                sys_sem_signal
                0x0000000088254a39                sys_timer_new
                0x0000000088254a75                sys_timer_free
                0x0000000088254aad                sys_getHostByName
                0x0000000088254af5                sys_sock_create
                0x0000000088254b1d                sys_sock_close
                0x0000000088254b45                sys_sock_connect
                0x0000000088254b6d                sys_sock_listen
                0x0000000088254b95                sys_sock_bind
                0x0000000088254bbd                sys_sock_accept
                0x0000000088254be5                sys_sock_send
                0x0000000088254c21                sys_sock_send2
                0x0000000088254c5d                sys_sock_recv
                0x0000000088254c99                sys_sock_recvFrom
                0x0000000088254cd5                sys_sock_setOpt
                0x0000000088254d01                sys_sock_getOpt
                0x0000000088254d2d                sys_malloc
                0x0000000088254d55                sys_free
                0x0000000088254d75                sys_getSysTick
                0x0000000088254d9d                sys_softReset
                0x0000000088254dbd                sys_PDPActive
                0x0000000088254de5                sys_PDPRelease
                0x0000000088254e0d                sys_PDPStatus
                0x0000000088254e35                sys_hookUart
                0x0000000088254e5d                sys_setRTC
                0x0000000088254e99                sys_getRTC
                0x0000000088254ed5                sys_setRTC_timerMode
                0x0000000088254f0d                sys_setRTC_timerSwitch
                0x0000000088254f45                sys_setRTC_timerCB
                0x0000000088254f7d                sys_setRTC_alarm
                0x0000000088254fb9                sys_setRTC_alarmON
                0x0000000088254fe5                sys_setRTC_alarmOFF
                0x0000000088255011                sys_setRTC_alarmCB
                0x0000000088255049                sys_eventTrace
                0x0000000088255079                sys_enterCS
                0x0000000088255099                sys_exitCS
                0x00000000882550b9                sys_watchdog_enable
                0x00000000882550e5                sys_watchdog_disable
                0x0000000088255105                sys_watchdog_feed
                0x0000000088255125                sys_GB2UNI
                0x000000008825515d                sys_UNI2GB
                0x0000000088255189                sys_gpio_cfg
                0x00000000882551b1                sys_gpio_set
                0x00000000882551dd                sys_gpio_get
                0x0000000088255205                sys_set
                0x0000000088255235                sys_get
                0x0000000088255265                sys_textTrace
                0x00000000882552d1                sys_file_open

.app_rodata     0x0000000088255344      0xfc8
 *(.rodata)
 .rodata        0x0000000088255344       0x20 /cygdrive/d/Pendrive/GPS/Custamized_App_08_09_17/build/gps.o
 .rodata        0x0000000088255364      0x100 /cygdrive/d/Pendrive/GPS/Custamized_App_08_09_17/lib/libsys_ext.a(ctype.o)
                0x0000000088255364                _ctype
 .rodata        0x0000000088255464       0x10 /cygdrive/d/Pendrive/GPS/Custamized_App_08_09_17/tool/libgcc.a(_thenan_sf.o)
                0x0000000088255464                __thenan_sf
 .rodata        0x0000000088255474      0x100 /cygdrive/d/Pendrive/GPS/Custamized_App_08_09_17/tool/libgcc.a(_clz.o)
                0x0000000088255474                __clz_tab
 *(.rodata.str1.1)
 *(.rodata.str1.4)
 .rodata.str1.4
                0x0000000088255574      0x274 /cygdrive/d/Pendrive/GPS/Custamized_App_08_09_17/build/app.o
 .rodata.str1.4
                0x00000000882557e8      0x4c4 /cygdrive/d/Pendrive/GPS/Custamized_App_08_09_17/build/atHandle.o
 .rodata.str1.4
                0x0000000088255cac      0x187 /cygdrive/d/Pendrive/GPS/Custamized_App_08_09_17/build/deviceConfig.o
                                        0x188 (size before relaxing)
 *fill*         0x0000000088255e33        0x1 00
 .rodata.str1.4
                0x0000000088255e34      0x30a /cygdrive/d/Pendrive/GPS/Custamized_App_08_09_17/build/gprsHandle.o
                                        0x314 (size before relaxing)
 *fill*         0x000000008825613e        0x2 00
 .rodata.str1.4
                0x0000000088256140      0x193 /cygdrive/d/Pendrive/GPS/Custamized_App_08_09_17/build/gps.o
                                        0x194 (size before relaxing)
 *fill*         0x00000000882562d3        0x1 00
 .rodata.str1.4
                0x00000000882562d4       0x25 /cygdrive/d/Pendrive/GPS/Custamized_App_08_09_17/lib/libsys_ext.a(vsprintf.o)
                                         0x28 (size before relaxing)
 *fill*         0x00000000882562f9        0x3 00
 .rodata.str1.4
                0x00000000882562fc       0x10 /cygdrive/d/Pendrive/GPS/Custamized_App_08_09_17/lib/sys_init.lib(sys_services.o)
                                         0x14 (size before relaxing)
 *(.rodata.*)
                0x000000008825630c                _SYS_APP_DATA_FLASH_START = .

.rel.dyn        0x000000008825630c        0x0
 .rel.dyn       0x0000000000000000        0x0 /cygdrive/d/Pendrive/GPS/Custamized_App_08_09_17/build/app.o
                0x000000008237f000                . = 0x8237f000

.app_data       0x000000008237f000      0x2e8 load address 0x000000008825630c
                0x000000008237f000                _SYS_APP_DATA_RAM_START = .
 *(.data)
 .data          0x000000008237f000      0x2e0 /cygdrive/d/Pendrive/GPS/Custamized_App_08_09_17/build/app.o
                0x000000008237f000                gpioSOS_Switch
                0x000000008237f004                gps_RMCCmd
                0x000000008237f03c                gps_VTGCmd
                0x000000008237f074                gps_StopCmd
                0x000000008237f0ac                fcstab
                0x000000008237f2ac                sys_callback
                0x000000008237f2bc                app_task
 .data          0x000000008237f2e0        0x0 /cygdrive/d/Pendrive/GPS/Custamized_App_08_09_17/build/atHandle.o
 .data          0x000000008237f2e0        0x0 /cygdrive/d/Pendrive/GPS/Custamized_App_08_09_17/build/deviceConfig.o
 .data          0x000000008237f2e0        0x8 /cygdrive/d/Pendrive/GPS/Custamized_App_08_09_17/build/gprsHandle.o
                0x000000008237f2e0                postMsg
                0x000000008237f2e4                jsonMsg
 .data          0x000000008237f2e8        0x0 /cygdrive/d/Pendrive/GPS/Custamized_App_08_09_17/build/gps.o
 .data          0x000000008237f2e8        0x0 /cygdrive/d/Pendrive/GPS/Custamized_App_08_09_17/lib/libsys_ext.a(atoi.o)
 .data          0x000000008237f2e8        0x0 /cygdrive/d/Pendrive/GPS/Custamized_App_08_09_17/lib/libsys_ext.a(ctype.o)
 .data          0x000000008237f2e8        0x0 /cygdrive/d/Pendrive/GPS/Custamized_App_08_09_17/lib/libsys_ext.a(inet.o)
 .data          0x000000008237f2e8        0x0 /cygdrive/d/Pendrive/GPS/Custamized_App_08_09_17/lib/libsys_ext.a(memcpy.o)
 .data          0x000000008237f2e8        0x0 /cygdrive/d/Pendrive/GPS/Custamized_App_08_09_17/lib/libsys_ext.a(memset.o)
 .data          0x000000008237f2e8        0x0 /cygdrive/d/Pendrive/GPS/Custamized_App_08_09_17/lib/libsys_ext.a(strchr.o)
 .data          0x000000008237f2e8        0x0 /cygdrive/d/Pendrive/GPS/Custamized_App_08_09_17/lib/libsys_ext.a(strcmp.o)
 .data          0x000000008237f2e8        0x0 /cygdrive/d/Pendrive/GPS/Custamized_App_08_09_17/lib/libsys_ext.a(strcpy.o)
 .data          0x000000008237f2e8        0x0 /cygdrive/d/Pendrive/GPS/Custamized_App_08_09_17/lib/libsys_ext.a(strlen.o)
 .data          0x000000008237f2e8        0x0 /cygdrive/d/Pendrive/GPS/Custamized_App_08_09_17/lib/libsys_ext.a(strncmp.o)
 .data          0x000000008237f2e8        0x0 /cygdrive/d/Pendrive/GPS/Custamized_App_08_09_17/lib/libsys_ext.a(strncpy.o)
 .data          0x000000008237f2e8        0x0 /cygdrive/d/Pendrive/GPS/Custamized_App_08_09_17/lib/libsys_ext.a(strstr.o)
 .data          0x000000008237f2e8        0x0 /cygdrive/d/Pendrive/GPS/Custamized_App_08_09_17/lib/libsys_ext.a(strtok.o)
 .data          0x000000008237f2e8        0x0 /cygdrive/d/Pendrive/GPS/Custamized_App_08_09_17/lib/libsys_ext.a(vsprintf.o)
 .data          0x000000008237f2e8        0x0 /cygdrive/d/Pendrive/GPS/Custamized_App_08_09_17/tool/libgcc.a(_addsub_sf.o)
 .data          0x000000008237f2e8        0x0 /cygdrive/d/Pendrive/GPS/Custamized_App_08_09_17/tool/libgcc.a(_mul_sf.o)
 .data          0x000000008237f2e8        0x0 /cygdrive/d/Pendrive/GPS/Custamized_App_08_09_17/tool/libgcc.a(_div_sf.o)
 .data          0x000000008237f2e8        0x0 /cygdrive/d/Pendrive/GPS/Custamized_App_08_09_17/tool/libgcc.a(_si_to_sf.o)
 .data          0x000000008237f2e8        0x0 /cygdrive/d/Pendrive/GPS/Custamized_App_08_09_17/tool/libgcc.a(_thenan_sf.o)
 .data          0x000000008237f2e8        0x0 /cygdrive/d/Pendrive/GPS/Custamized_App_08_09_17/tool/libgcc.a(_clzsi2.o)
 .data          0x000000008237f2e8        0x0 /cygdrive/d/Pendrive/GPS/Custamized_App_08_09_17/tool/libgcc.a(_pack_sf.o)
 .data          0x000000008237f2e8        0x0 /cygdrive/d/Pendrive/GPS/Custamized_App_08_09_17/tool/libgcc.a(_unpack_sf.o)
 .data          0x000000008237f2e8        0x0 /cygdrive/d/Pendrive/GPS/Custamized_App_08_09_17/tool/libgcc.a(_clz.o)
 .data          0x000000008237f2e8        0x0 /cygdrive/d/Pendrive/GPS/Custamized_App_08_09_17/lib/sys_init.lib(sys_callback.o)
 .data          0x000000008237f2e8        0x0 /cygdrive/d/Pendrive/GPS/Custamized_App_08_09_17/lib/sys_init.lib(sys_services.o)
 *(.rwdata)
 *(.sdata)
                0x000000008237f2e8                _SYS_APP_DATA_RAM_END = .
                0x00000000000002e8                _SYS_APP_DATA_SIZE = (_SYS_APP_DATA_RAM_END - _SYS_APP_DATA_RAM_START)
                0x00000000882565f4                _SYS_APP_BSS_FLASH_START = (_SYS_APP_DATA_FLASH_START + _SYS_APP_DATA_SIZE)
                0x00000000882565f4                _app_end = _SYS_APP_BSS_FLASH_START
                0x00000000000065f4                _app_size = (_app_end - _app_start)
                0x0000000000000001                ASSERT ((_app_size < 0x80000), APP CODE OVERFLOW !!)

.app_bss        0x000000008237f2e8     0x4109 load address 0x00000000882565f4
                0x000000008237f2e8                _SYS_APP_BSS_RAM_START = .
 *(.bss)
 .bss           0x000000008237f2e8       0xc8 /cygdrive/d/Pendrive/GPS/Custamized_App_08_09_17/build/app.o
 .bss           0x000000008237f3b0        0x0 /cygdrive/d/Pendrive/GPS/Custamized_App_08_09_17/build/atHandle.o
 .bss           0x000000008237f3b0        0x0 /cygdrive/d/Pendrive/GPS/Custamized_App_08_09_17/build/deviceConfig.o
 .bss           0x000000008237f3b0        0x0 /cygdrive/d/Pendrive/GPS/Custamized_App_08_09_17/build/gprsHandle.o
 .bss           0x000000008237f3b0        0x0 /cygdrive/d/Pendrive/GPS/Custamized_App_08_09_17/build/gps.o
 .bss           0x000000008237f3b0        0x0 /cygdrive/d/Pendrive/GPS/Custamized_App_08_09_17/lib/libsys_ext.a(atoi.o)
 .bss           0x000000008237f3b0        0x0 /cygdrive/d/Pendrive/GPS/Custamized_App_08_09_17/lib/libsys_ext.a(ctype.o)
 .bss           0x000000008237f3b0        0x0 /cygdrive/d/Pendrive/GPS/Custamized_App_08_09_17/lib/libsys_ext.a(inet.o)
 .bss           0x000000008237f3b0        0x0 /cygdrive/d/Pendrive/GPS/Custamized_App_08_09_17/lib/libsys_ext.a(memcpy.o)
 .bss           0x000000008237f3b0        0x0 /cygdrive/d/Pendrive/GPS/Custamized_App_08_09_17/lib/libsys_ext.a(memset.o)
 .bss           0x000000008237f3b0        0x0 /cygdrive/d/Pendrive/GPS/Custamized_App_08_09_17/lib/libsys_ext.a(strchr.o)
 .bss           0x000000008237f3b0        0x0 /cygdrive/d/Pendrive/GPS/Custamized_App_08_09_17/lib/libsys_ext.a(strcmp.o)
 .bss           0x000000008237f3b0        0x0 /cygdrive/d/Pendrive/GPS/Custamized_App_08_09_17/lib/libsys_ext.a(strcpy.o)
 .bss           0x000000008237f3b0        0x0 /cygdrive/d/Pendrive/GPS/Custamized_App_08_09_17/lib/libsys_ext.a(strlen.o)
 .bss           0x000000008237f3b0        0x0 /cygdrive/d/Pendrive/GPS/Custamized_App_08_09_17/lib/libsys_ext.a(strncmp.o)
 .bss           0x000000008237f3b0        0x0 /cygdrive/d/Pendrive/GPS/Custamized_App_08_09_17/lib/libsys_ext.a(strncpy.o)
 .bss           0x000000008237f3b0        0x0 /cygdrive/d/Pendrive/GPS/Custamized_App_08_09_17/lib/libsys_ext.a(strstr.o)
 .bss           0x000000008237f3b0        0x4 /cygdrive/d/Pendrive/GPS/Custamized_App_08_09_17/lib/libsys_ext.a(strtok.o)
 .bss           0x000000008237f3b4        0x0 /cygdrive/d/Pendrive/GPS/Custamized_App_08_09_17/lib/libsys_ext.a(vsprintf.o)
 .bss           0x000000008237f3b4        0x0 /cygdrive/d/Pendrive/GPS/Custamized_App_08_09_17/tool/libgcc.a(_addsub_sf.o)
 .bss           0x000000008237f3b4        0x0 /cygdrive/d/Pendrive/GPS/Custamized_App_08_09_17/tool/libgcc.a(_mul_sf.o)
 .bss           0x000000008237f3b4        0x0 /cygdrive/d/Pendrive/GPS/Custamized_App_08_09_17/tool/libgcc.a(_div_sf.o)
 .bss           0x000000008237f3b4        0x0 /cygdrive/d/Pendrive/GPS/Custamized_App_08_09_17/tool/libgcc.a(_si_to_sf.o)
 .bss           0x000000008237f3b4        0x0 /cygdrive/d/Pendrive/GPS/Custamized_App_08_09_17/tool/libgcc.a(_thenan_sf.o)
 .bss           0x000000008237f3b4        0x0 /cygdrive/d/Pendrive/GPS/Custamized_App_08_09_17/tool/libgcc.a(_clzsi2.o)
 .bss           0x000000008237f3b4        0x0 /cygdrive/d/Pendrive/GPS/Custamized_App_08_09_17/tool/libgcc.a(_pack_sf.o)
 .bss           0x000000008237f3b4        0x0 /cygdrive/d/Pendrive/GPS/Custamized_App_08_09_17/tool/libgcc.a(_unpack_sf.o)
 .bss           0x000000008237f3b4        0x0 /cygdrive/d/Pendrive/GPS/Custamized_App_08_09_17/tool/libgcc.a(_clz.o)
 .bss           0x000000008237f3b4        0x0 /cygdrive/d/Pendrive/GPS/Custamized_App_08_09_17/lib/sys_init.lib(sys_callback.o)
 .bss           0x000000008237f3b4        0x4 /cygdrive/d/Pendrive/GPS/Custamized_App_08_09_17/lib/sys_init.lib(sys_services.o)
 *(.sbss)
 *(COMMON)
 COMMON         0x000000008237f3b8     0x18c4 /cygdrive/d/Pendrive/GPS/Custamized_App_08_09_17/build/app.o
                0x000000008237f3b8                IMEI_NUMBER
                0x000000008237f3c8                dbgBuf
                0x000000008237f7c8                smsMsgBuffer
                0x000000008237f9c8                sendFrameBuffer
                0x00000000823801c8                modemConfig
                0x00000000823803fc                recvFrameBuffer
                0x0000000082380bfc                atCmd
 COMMON         0x0000000082380c7c      0x680 /cygdrive/d/Pendrive/GPS/Custamized_App_08_09_17/build/atHandle.o
                0x0000000082380c7c                pppIp
                0x0000000082380c9c                smsReadStr
                0x0000000082380d9c                smsWriteStr
                0x0000000082380f9c                tmpBuff1
                0x0000000082380fdc                smsSendBuff
                0x00000000823811dc                smsSenderMob
                0x00000000823811fc                smsReadBuff
 COMMON         0x00000000823812fc     0x2020 /cygdrive/d/Pendrive/GPS/Custamized_App_08_09_17/build/gprsHandle.o
                0x00000000823812fc                udpSockSendBuffer
                0x0000000082381afc                tcpSockRcvBuff
                0x00000000823822fc                tmpTimeBuf
                0x000000008238231c                tcpSockSendBuffer
                0x0000000082382b1c                sockRecvBuffer
 COMMON         0x000000008238331c       0x5a /cygdrive/d/Pendrive/GPS/Custamized_App_08_09_17/build/gps.o
                0x000000008238331c                gps_Cordinates
 *(.scommon)
 *fill*         0x0000000082383376        0x2 00
 .scommon       0x0000000082383378       0x49 /cygdrive/d/Pendrive/GPS/Custamized_App_08_09_17/build/app.o
                0x0000000082383378                wdtCount
                0x000000008238337c                Task_smsHandle
                0x0000000082383380                tmpSize
                0x0000000082383384                wdtFailureCount
                0x0000000082383388                secGlobal
                0x000000008238338c                Task_GPS_Handle
                0x0000000082383390                tempSerRespLen
                0x0000000082383394                tmpSlen
                0x0000000082383398                flag1
                0x00000000823833a0                Task_GpsPostHandle
                0x00000000823833a4                fotaTimeOutVar
                0x00000000823833a8                curSockBuffLen
                0x00000000823833ac                rtcTime
                0x00000000823833b4                tempSerRespLen1
                0x00000000823833b8                prevWdtCount
                0x00000000823833bc                Task_Main
                0x00000000823833c0                status
 *fill*         0x00000000823833c1        0x3 00
 .scommon       0x00000000823833c4       0x18 /cygdrive/d/Pendrive/GPS/Custamized_App_08_09_17/build/atHandle.o
                0x00000000823833c4                atHandler
                0x00000000823833c8                gotPPPip
                0x00000000823833c9                lowSigStrength
                0x00000000823833ca                sigStrength
                0x00000000823833cc                modemTemperature
                0x00000000823833d0                signalStrength
                0x00000000823833d4                gprsAttached
                0x00000000823833d5                simRegistered
                0x00000000823833d8                network
 .scommon       0x00000000823833dc       0x15 /cygdrive/d/Pendrive/GPS/Custamized_App_08_09_17/build/gprsHandle.o
                0x00000000823833dc                sockTcp
                0x00000000823833e0                sockUdp
                0x00000000823833e4                socketConeccted
                0x00000000823833e8                appUdpAddr
                0x00000000823833f0                socConSuccess104
                0x00000000823833f1                _SYS_APP_BSS_RAM_END = .
                0x0000000000004109                _SYS_APP_BSS_SIZE = (_SYS_APP_BSS_RAM_END - _SYS_APP_BSS_RAM_START)
                0x0000000000000001                ASSERT (((_SYS_APP_DATA_SIZE + _SYS_APP_BSS_SIZE) < 0x80000), APP DATA OVERFLOW !!)
OUTPUT(/cygdrive/d/Pendrive/GPS/Custamized_App_08_09_17/build/image.out elf32-littlemips)

.reginfo        0x0000000000000000       0x18
 .reginfo       0x0000000000000000       0x18 /cygdrive/d/Pendrive/GPS/Custamized_App_08_09_17/build/app.o

.pdr            0x0000000000000000     0x1280
 .pdr           0x0000000000000000      0x1a0 /cygdrive/d/Pendrive/GPS/Custamized_App_08_09_17/build/app.o
 .pdr           0x00000000000001a0      0x140 /cygdrive/d/Pendrive/GPS/Custamized_App_08_09_17/build/atHandle.o
 .pdr           0x00000000000002e0       0x60 /cygdrive/d/Pendrive/GPS/Custamized_App_08_09_17/build/deviceConfig.o
 .pdr           0x0000000000000340      0x160 /cygdrive/d/Pendrive/GPS/Custamized_App_08_09_17/build/gprsHandle.o
 .pdr           0x00000000000004a0      0x100 /cygdrive/d/Pendrive/GPS/Custamized_App_08_09_17/build/gps.o
 .pdr           0x00000000000005a0       0x20 /cygdrive/d/Pendrive/GPS/Custamized_App_08_09_17/lib/libsys_ext.a(atoi.o)
 .pdr           0x00000000000005c0       0x40 /cygdrive/d/Pendrive/GPS/Custamized_App_08_09_17/lib/libsys_ext.a(ctype.o)
 .pdr           0x0000000000000600       0x80 /cygdrive/d/Pendrive/GPS/Custamized_App_08_09_17/lib/libsys_ext.a(inet.o)
 .pdr           0x0000000000000680       0x20 /cygdrive/d/Pendrive/GPS/Custamized_App_08_09_17/lib/libsys_ext.a(memcpy.o)
 .pdr           0x00000000000006a0       0x20 /cygdrive/d/Pendrive/GPS/Custamized_App_08_09_17/lib/libsys_ext.a(memset.o)
 .pdr           0x00000000000006c0       0x40 /cygdrive/d/Pendrive/GPS/Custamized_App_08_09_17/lib/libsys_ext.a(strchr.o)
 .pdr           0x0000000000000700       0x20 /cygdrive/d/Pendrive/GPS/Custamized_App_08_09_17/lib/libsys_ext.a(strcmp.o)
 .pdr           0x0000000000000720       0x20 /cygdrive/d/Pendrive/GPS/Custamized_App_08_09_17/lib/libsys_ext.a(strcpy.o)
 .pdr           0x0000000000000740       0x40 /cygdrive/d/Pendrive/GPS/Custamized_App_08_09_17/lib/libsys_ext.a(strlen.o)
 .pdr           0x0000000000000780       0x20 /cygdrive/d/Pendrive/GPS/Custamized_App_08_09_17/lib/libsys_ext.a(strncmp.o)
 .pdr           0x00000000000007a0       0x20 /cygdrive/d/Pendrive/GPS/Custamized_App_08_09_17/lib/libsys_ext.a(strncpy.o)
 .pdr           0x00000000000007c0       0x20 /cygdrive/d/Pendrive/GPS/Custamized_App_08_09_17/lib/libsys_ext.a(strstr.o)
 .pdr           0x00000000000007e0       0x40 /cygdrive/d/Pendrive/GPS/Custamized_App_08_09_17/lib/libsys_ext.a(strtok.o)
 .pdr           0x0000000000000820       0xc0 /cygdrive/d/Pendrive/GPS/Custamized_App_08_09_17/lib/libsys_ext.a(vsprintf.o)
 .pdr           0x00000000000008e0       0x60 /cygdrive/d/Pendrive/GPS/Custamized_App_08_09_17/tool/libgcc.a(_addsub_sf.o)
 .pdr           0x0000000000000940       0x20 /cygdrive/d/Pendrive/GPS/Custamized_App_08_09_17/tool/libgcc.a(_mul_sf.o)
 .pdr           0x0000000000000960       0x20 /cygdrive/d/Pendrive/GPS/Custamized_App_08_09_17/tool/libgcc.a(_div_sf.o)
 .pdr           0x0000000000000980       0x20 /cygdrive/d/Pendrive/GPS/Custamized_App_08_09_17/tool/libgcc.a(_si_to_sf.o)
 .pdr           0x00000000000009a0        0x0 /cygdrive/d/Pendrive/GPS/Custamized_App_08_09_17/tool/libgcc.a(_thenan_sf.o)
 .pdr           0x00000000000009a0       0x20 /cygdrive/d/Pendrive/GPS/Custamized_App_08_09_17/tool/libgcc.a(_clzsi2.o)
 .pdr           0x00000000000009c0       0x20 /cygdrive/d/Pendrive/GPS/Custamized_App_08_09_17/tool/libgcc.a(_pack_sf.o)
 .pdr           0x00000000000009e0       0x20 /cygdrive/d/Pendrive/GPS/Custamized_App_08_09_17/tool/libgcc.a(_unpack_sf.o)
 .pdr           0x0000000000000a00        0x0 /cygdrive/d/Pendrive/GPS/Custamized_App_08_09_17/tool/libgcc.a(_clz.o)
 .pdr           0x0000000000000a00       0x20 /cygdrive/d/Pendrive/GPS/Custamized_App_08_09_17/lib/sys_init.lib(sys_callback.o)
 .pdr           0x0000000000000a20      0x860 /cygdrive/d/Pendrive/GPS/Custamized_App_08_09_17/lib/sys_init.lib(sys_services.o)

.mdebug.abi32   0x0000000000000000        0x0
 .mdebug.abi32  0x0000000000000000        0x0 /cygdrive/d/Pendrive/GPS/Custamized_App_08_09_17/build/app.o
 .mdebug.abi32  0x0000000000000000        0x0 /cygdrive/d/Pendrive/GPS/Custamized_App_08_09_17/build/atHandle.o
 .mdebug.abi32  0x0000000000000000        0x0 /cygdrive/d/Pendrive/GPS/Custamized_App_08_09_17/build/deviceConfig.o
 .mdebug.abi32  0x0000000000000000        0x0 /cygdrive/d/Pendrive/GPS/Custamized_App_08_09_17/build/gprsHandle.o
 .mdebug.abi32  0x0000000000000000        0x0 /cygdrive/d/Pendrive/GPS/Custamized_App_08_09_17/build/gps.o
 .mdebug.abi32  0x0000000000000000        0x0 /cygdrive/d/Pendrive/GPS/Custamized_App_08_09_17/lib/libsys_ext.a(atoi.o)
 .mdebug.abi32  0x0000000000000000        0x0 /cygdrive/d/Pendrive/GPS/Custamized_App_08_09_17/lib/libsys_ext.a(ctype.o)
 .mdebug.abi32  0x0000000000000000        0x0 /cygdrive/d/Pendrive/GPS/Custamized_App_08_09_17/lib/libsys_ext.a(inet.o)
 .mdebug.abi32  0x0000000000000000        0x0 /cygdrive/d/Pendrive/GPS/Custamized_App_08_09_17/lib/libsys_ext.a(memcpy.o)
 .mdebug.abi32  0x0000000000000000        0x0 /cygdrive/d/Pendrive/GPS/Custamized_App_08_09_17/lib/libsys_ext.a(memset.o)
 .mdebug.abi32  0x0000000000000000        0x0 /cygdrive/d/Pendrive/GPS/Custamized_App_08_09_17/lib/libsys_ext.a(strchr.o)
 .mdebug.abi32  0x0000000000000000        0x0 /cygdrive/d/Pendrive/GPS/Custamized_App_08_09_17/lib/libsys_ext.a(strcmp.o)
 .mdebug.abi32  0x0000000000000000        0x0 /cygdrive/d/Pendrive/GPS/Custamized_App_08_09_17/lib/libsys_ext.a(strcpy.o)
 .mdebug.abi32  0x0000000000000000        0x0 /cygdrive/d/Pendrive/GPS/Custamized_App_08_09_17/lib/libsys_ext.a(strlen.o)
 .mdebug.abi32  0x0000000000000000        0x0 /cygdrive/d/Pendrive/GPS/Custamized_App_08_09_17/lib/libsys_ext.a(strncmp.o)
 .mdebug.abi32  0x0000000000000000        0x0 /cygdrive/d/Pendrive/GPS/Custamized_App_08_09_17/lib/libsys_ext.a(strncpy.o)
 .mdebug.abi32  0x0000000000000000        0x0 /cygdrive/d/Pendrive/GPS/Custamized_App_08_09_17/lib/libsys_ext.a(strstr.o)
 .mdebug.abi32  0x0000000000000000        0x0 /cygdrive/d/Pendrive/GPS/Custamized_App_08_09_17/lib/libsys_ext.a(strtok.o)
 .mdebug.abi32  0x0000000000000000        0x0 /cygdrive/d/Pendrive/GPS/Custamized_App_08_09_17/lib/libsys_ext.a(vsprintf.o)
 .mdebug.abi32  0x0000000000000000        0x0 /cygdrive/d/Pendrive/GPS/Custamized_App_08_09_17/tool/libgcc.a(_addsub_sf.o)
 .mdebug.abi32  0x0000000000000000        0x0 /cygdrive/d/Pendrive/GPS/Custamized_App_08_09_17/tool/libgcc.a(_mul_sf.o)
 .mdebug.abi32  0x0000000000000000        0x0 /cygdrive/d/Pendrive/GPS/Custamized_App_08_09_17/tool/libgcc.a(_div_sf.o)
 .mdebug.abi32  0x0000000000000000        0x0 /cygdrive/d/Pendrive/GPS/Custamized_App_08_09_17/tool/libgcc.a(_si_to_sf.o)
 .mdebug.abi32  0x0000000000000000        0x0 /cygdrive/d/Pendrive/GPS/Custamized_App_08_09_17/tool/libgcc.a(_thenan_sf.o)
 .mdebug.abi32  0x0000000000000000        0x0 /cygdrive/d/Pendrive/GPS/Custamized_App_08_09_17/tool/libgcc.a(_clzsi2.o)
 .mdebug.abi32  0x0000000000000000        0x0 /cygdrive/d/Pendrive/GPS/Custamized_App_08_09_17/tool/libgcc.a(_pack_sf.o)
 .mdebug.abi32  0x0000000000000000        0x0 /cygdrive/d/Pendrive/GPS/Custamized_App_08_09_17/tool/libgcc.a(_unpack_sf.o)
 .mdebug.abi32  0x0000000000000000        0x0 /cygdrive/d/Pendrive/GPS/Custamized_App_08_09_17/tool/libgcc.a(_clz.o)
 .mdebug.abi32  0x0000000000000000        0x0 /cygdrive/d/Pendrive/GPS/Custamized_App_08_09_17/lib/sys_init.lib(sys_callback.o)
 .mdebug.abi32  0x0000000000000000        0x0 /cygdrive/d/Pendrive/GPS/Custamized_App_08_09_17/lib/sys_init.lib(sys_services.o)

.comment        0x0000000000000000       0x31
 .comment       0x0000000000000000       0x31 /cygdrive/d/Pendrive/GPS/Custamized_App_08_09_17/build/app.o
                                         0x32 (size before relaxing)
 .comment       0x0000000000000000       0x32 /cygdrive/d/Pendrive/GPS/Custamized_App_08_09_17/build/atHandle.o
 .comment       0x0000000000000000       0x32 /cygdrive/d/Pendrive/GPS/Custamized_App_08_09_17/build/deviceConfig.o
 .comment       0x0000000000000000       0x32 /cygdrive/d/Pendrive/GPS/Custamized_App_08_09_17/build/gprsHandle.o
 .comment       0x0000000000000000       0x32 /cygdrive/d/Pendrive/GPS/Custamized_App_08_09_17/build/gps.o
 .comment       0x0000000000000000       0x32 /cygdrive/d/Pendrive/GPS/Custamized_App_08_09_17/lib/libsys_ext.a(atoi.o)
 .comment       0x0000000000000000       0x32 /cygdrive/d/Pendrive/GPS/Custamized_App_08_09_17/lib/libsys_ext.a(ctype.o)
 .comment       0x0000000000000000       0x32 /cygdrive/d/Pendrive/GPS/Custamized_App_08_09_17/lib/libsys_ext.a(inet.o)
 .comment       0x0000000000000000       0x32 /cygdrive/d/Pendrive/GPS/Custamized_App_08_09_17/lib/libsys_ext.a(memcpy.o)
 .comment       0x0000000000000000       0x32 /cygdrive/d/Pendrive/GPS/Custamized_App_08_09_17/lib/libsys_ext.a(memset.o)
 .comment       0x0000000000000000       0x32 /cygdrive/d/Pendrive/GPS/Custamized_App_08_09_17/lib/libsys_ext.a(strchr.o)
 .comment       0x0000000000000000       0x32 /cygdrive/d/Pendrive/GPS/Custamized_App_08_09_17/lib/libsys_ext.a(strcmp.o)
 .comment       0x0000000000000000       0x32 /cygdrive/d/Pendrive/GPS/Custamized_App_08_09_17/lib/libsys_ext.a(strcpy.o)
 .comment       0x0000000000000000       0x32 /cygdrive/d/Pendrive/GPS/Custamized_App_08_09_17/lib/libsys_ext.a(strlen.o)
 .comment       0x0000000000000000       0x32 /cygdrive/d/Pendrive/GPS/Custamized_App_08_09_17/lib/libsys_ext.a(strncmp.o)
 .comment       0x0000000000000000       0x32 /cygdrive/d/Pendrive/GPS/Custamized_App_08_09_17/lib/libsys_ext.a(strncpy.o)
 .comment       0x0000000000000000       0x32 /cygdrive/d/Pendrive/GPS/Custamized_App_08_09_17/lib/libsys_ext.a(strstr.o)
 .comment       0x0000000000000000       0x32 /cygdrive/d/Pendrive/GPS/Custamized_App_08_09_17/lib/libsys_ext.a(strtok.o)
 .comment       0x0000000000000000       0x32 /cygdrive/d/Pendrive/GPS/Custamized_App_08_09_17/lib/libsys_ext.a(vsprintf.o)
 .comment       0x0000000000000000       0x32 /cygdrive/d/Pendrive/GPS/Custamized_App_08_09_17/tool/libgcc.a(_addsub_sf.o)
 .comment       0x0000000000000000       0x32 /cygdrive/d/Pendrive/GPS/Custamized_App_08_09_17/tool/libgcc.a(_mul_sf.o)
 .comment       0x0000000000000000       0x32 /cygdrive/d/Pendrive/GPS/Custamized_App_08_09_17/tool/libgcc.a(_div_sf.o)
 .comment       0x0000000000000000       0x32 /cygdrive/d/Pendrive/GPS/Custamized_App_08_09_17/tool/libgcc.a(_si_to_sf.o)
 .comment       0x0000000000000000       0x32 /cygdrive/d/Pendrive/GPS/Custamized_App_08_09_17/tool/libgcc.a(_thenan_sf.o)
 .comment       0x0000000000000000       0x32 /cygdrive/d/Pendrive/GPS/Custamized_App_08_09_17/tool/libgcc.a(_clzsi2.o)
 .comment       0x0000000000000000       0x32 /cygdrive/d/Pendrive/GPS/Custamized_App_08_09_17/tool/libgcc.a(_pack_sf.o)
 .comment       0x0000000000000000       0x32 /cygdrive/d/Pendrive/GPS/Custamized_App_08_09_17/tool/libgcc.a(_unpack_sf.o)
 .comment       0x0000000000000000       0x32 /cygdrive/d/Pendrive/GPS/Custamized_App_08_09_17/tool/libgcc.a(_clz.o)
 .comment       0x0000000000000000       0x32 /cygdrive/d/Pendrive/GPS/Custamized_App_08_09_17/lib/sys_init.lib(sys_callback.o)
 .comment       0x0000000000000000       0x32 /cygdrive/d/Pendrive/GPS/Custamized_App_08_09_17/lib/sys_init.lib(sys_services.o)

.gnu.attributes
                0x0000000000000000       0x10
 .gnu.attributes
                0x0000000000000000       0x10 /cygdrive/d/Pendrive/GPS/Custamized_App_08_09_17/build/app.o
 .gnu.attributes
                0x0000000000000010       0x10 /cygdrive/d/Pendrive/GPS/Custamized_App_08_09_17/build/atHandle.o
 .gnu.attributes
                0x0000000000000020       0x10 /cygdrive/d/Pendrive/GPS/Custamized_App_08_09_17/build/deviceConfig.o
 .gnu.attributes
                0x0000000000000030       0x10 /cygdrive/d/Pendrive/GPS/Custamized_App_08_09_17/build/gprsHandle.o
 .gnu.attributes
                0x0000000000000040       0x10 /cygdrive/d/Pendrive/GPS/Custamized_App_08_09_17/build/gps.o
 .gnu.attributes
                0x0000000000000050       0x10 /cygdrive/d/Pendrive/GPS/Custamized_App_08_09_17/lib/libsys_ext.a(atoi.o)
 .gnu.attributes
                0x0000000000000060       0x10 /cygdrive/d/Pendrive/GPS/Custamized_App_08_09_17/lib/libsys_ext.a(ctype.o)
 .gnu.attributes
                0x0000000000000070       0x10 /cygdrive/d/Pendrive/GPS/Custamized_App_08_09_17/lib/libsys_ext.a(inet.o)
 .gnu.attributes
                0x0000000000000080       0x10 /cygdrive/d/Pendrive/GPS/Custamized_App_08_09_17/lib/libsys_ext.a(memcpy.o)
 .gnu.attributes
                0x0000000000000090       0x10 /cygdrive/d/Pendrive/GPS/Custamized_App_08_09_17/lib/libsys_ext.a(memset.o)
 .gnu.attributes
                0x00000000000000a0       0x10 /cygdrive/d/Pendrive/GPS/Custamized_App_08_09_17/lib/libsys_ext.a(strchr.o)
 .gnu.attributes
                0x00000000000000b0       0x10 /cygdrive/d/Pendrive/GPS/Custamized_App_08_09_17/lib/libsys_ext.a(strcmp.o)
 .gnu.attributes
                0x00000000000000c0       0x10 /cygdrive/d/Pendrive/GPS/Custamized_App_08_09_17/lib/libsys_ext.a(strcpy.o)
 .gnu.attributes
                0x00000000000000d0       0x10 /cygdrive/d/Pendrive/GPS/Custamized_App_08_09_17/lib/libsys_ext.a(strlen.o)
 .gnu.attributes
                0x00000000000000e0       0x10 /cygdrive/d/Pendrive/GPS/Custamized_App_08_09_17/lib/libsys_ext.a(strncmp.o)
 .gnu.attributes
                0x00000000000000f0       0x10 /cygdrive/d/Pendrive/GPS/Custamized_App_08_09_17/lib/libsys_ext.a(strncpy.o)
 .gnu.attributes
                0x0000000000000100       0x10 /cygdrive/d/Pendrive/GPS/Custamized_App_08_09_17/lib/libsys_ext.a(strstr.o)
 .gnu.attributes
                0x0000000000000110       0x10 /cygdrive/d/Pendrive/GPS/Custamized_App_08_09_17/lib/libsys_ext.a(strtok.o)
 .gnu.attributes
                0x0000000000000120       0x10 /cygdrive/d/Pendrive/GPS/Custamized_App_08_09_17/lib/libsys_ext.a(vsprintf.o)
 .gnu.attributes
                0x0000000000000130       0x10 /cygdrive/d/Pendrive/GPS/Custamized_App_08_09_17/tool/libgcc.a(_addsub_sf.o)
 .gnu.attributes
                0x0000000000000140       0x10 /cygdrive/d/Pendrive/GPS/Custamized_App_08_09_17/tool/libgcc.a(_mul_sf.o)
 .gnu.attributes
                0x0000000000000150       0x10 /cygdrive/d/Pendrive/GPS/Custamized_App_08_09_17/tool/libgcc.a(_div_sf.o)
 .gnu.attributes
                0x0000000000000160       0x10 /cygdrive/d/Pendrive/GPS/Custamized_App_08_09_17/tool/libgcc.a(_si_to_sf.o)
 .gnu.attributes
                0x0000000000000170       0x10 /cygdrive/d/Pendrive/GPS/Custamized_App_08_09_17/tool/libgcc.a(_thenan_sf.o)
 .gnu.attributes
                0x0000000000000180       0x10 /cygdrive/d/Pendrive/GPS/Custamized_App_08_09_17/tool/libgcc.a(_clzsi2.o)
 .gnu.attributes
                0x0000000000000190       0x10 /cygdrive/d/Pendrive/GPS/Custamized_App_08_09_17/tool/libgcc.a(_pack_sf.o)
 .gnu.attributes
                0x00000000000001a0       0x10 /cygdrive/d/Pendrive/GPS/Custamized_App_08_09_17/tool/libgcc.a(_unpack_sf.o)
 .gnu.attributes
                0x00000000000001b0       0x10 /cygdrive/d/Pendrive/GPS/Custamized_App_08_09_17/tool/libgcc.a(_clz.o)
 .gnu.attributes
                0x00000000000001c0       0x10 /cygdrive/d/Pendrive/GPS/Custamized_App_08_09_17/lib/sys_init.lib(sys_callback.o)
 .gnu.attributes
                0x00000000000001d0       0x10 /cygdrive/d/Pendrive/GPS/Custamized_App_08_09_17/lib/sys_init.lib(sys_services.o)

.debug_abbrev   0x0000000000000000      0xc0c
 .debug_abbrev  0x0000000000000000      0x1db /cygdrive/d/Pendrive/GPS/Custamized_App_08_09_17/tool/libgcc.a(_addsub_sf.o)
 .debug_abbrev  0x00000000000001db      0x1f9 /cygdrive/d/Pendrive/GPS/Custamized_App_08_09_17/tool/libgcc.a(_mul_sf.o)
 .debug_abbrev  0x00000000000003d4      0x1dc /cygdrive/d/Pendrive/GPS/Custamized_App_08_09_17/tool/libgcc.a(_div_sf.o)
 .debug_abbrev  0x00000000000005b0      0x148 /cygdrive/d/Pendrive/GPS/Custamized_App_08_09_17/tool/libgcc.a(_si_to_sf.o)
 .debug_abbrev  0x00000000000006f8       0xc3 /cygdrive/d/Pendrive/GPS/Custamized_App_08_09_17/tool/libgcc.a(_thenan_sf.o)
 .debug_abbrev  0x00000000000007bb       0xc4 /cygdrive/d/Pendrive/GPS/Custamized_App_08_09_17/tool/libgcc.a(_clzsi2.o)
 .debug_abbrev  0x000000000000087f      0x1c0 /cygdrive/d/Pendrive/GPS/Custamized_App_08_09_17/tool/libgcc.a(_pack_sf.o)
 .debug_abbrev  0x0000000000000a3f      0x163 /cygdrive/d/Pendrive/GPS/Custamized_App_08_09_17/tool/libgcc.a(_unpack_sf.o)
 .debug_abbrev  0x0000000000000ba2       0x6a /cygdrive/d/Pendrive/GPS/Custamized_App_08_09_17/tool/libgcc.a(_clz.o)

.debug_info     0x0000000000000000     0x168e
 .debug_info    0x0000000000000000      0x483 /cygdrive/d/Pendrive/GPS/Custamized_App_08_09_17/tool/libgcc.a(_addsub_sf.o)
 .debug_info    0x0000000000000483      0x3cc /cygdrive/d/Pendrive/GPS/Custamized_App_08_09_17/tool/libgcc.a(_mul_sf.o)
 .debug_info    0x000000000000084f      0x390 /cygdrive/d/Pendrive/GPS/Custamized_App_08_09_17/tool/libgcc.a(_div_sf.o)
 .debug_info    0x0000000000000bdf      0x214 /cygdrive/d/Pendrive/GPS/Custamized_App_08_09_17/tool/libgcc.a(_si_to_sf.o)
 .debug_info    0x0000000000000df3      0x160 /cygdrive/d/Pendrive/GPS/Custamized_App_08_09_17/tool/libgcc.a(_thenan_sf.o)
 .debug_info    0x0000000000000f53      0x132 /cygdrive/d/Pendrive/GPS/Custamized_App_08_09_17/tool/libgcc.a(_clzsi2.o)
 .debug_info    0x0000000000001085      0x2ea /cygdrive/d/Pendrive/GPS/Custamized_App_08_09_17/tool/libgcc.a(_pack_sf.o)
 .debug_info    0x000000000000136f      0x25a /cygdrive/d/Pendrive/GPS/Custamized_App_08_09_17/tool/libgcc.a(_unpack_sf.o)
 .debug_info    0x00000000000015c9       0xc5 /cygdrive/d/Pendrive/GPS/Custamized_App_08_09_17/tool/libgcc.a(_clz.o)

.debug_line     0x0000000000000000      0x5e2
 .debug_line    0x0000000000000000      0x104 /cygdrive/d/Pendrive/GPS/Custamized_App_08_09_17/tool/libgcc.a(_addsub_sf.o)
 .debug_line    0x0000000000000104       0xdc /cygdrive/d/Pendrive/GPS/Custamized_App_08_09_17/tool/libgcc.a(_mul_sf.o)
 .debug_line    0x00000000000001e0       0xc4 /cygdrive/d/Pendrive/GPS/Custamized_App_08_09_17/tool/libgcc.a(_div_sf.o)
 .debug_line    0x00000000000002a4       0x9f /cygdrive/d/Pendrive/GPS/Custamized_App_08_09_17/tool/libgcc.a(_si_to_sf.o)
 .debug_line    0x0000000000000343       0x69 /cygdrive/d/Pendrive/GPS/Custamized_App_08_09_17/tool/libgcc.a(_thenan_sf.o)
 .debug_line    0x00000000000003ac       0x79 /cygdrive/d/Pendrive/GPS/Custamized_App_08_09_17/tool/libgcc.a(_clzsi2.o)
 .debug_line    0x0000000000000425       0xba /cygdrive/d/Pendrive/GPS/Custamized_App_08_09_17/tool/libgcc.a(_pack_sf.o)
 .debug_line    0x00000000000004df       0xab /cygdrive/d/Pendrive/GPS/Custamized_App_08_09_17/tool/libgcc.a(_unpack_sf.o)
 .debug_line    0x000000000000058a       0x58 /cygdrive/d/Pendrive/GPS/Custamized_App_08_09_17/tool/libgcc.a(_clz.o)

.debug_frame    0x0000000000000000      0x158
 .debug_frame   0x0000000000000000       0x70 /cygdrive/d/Pendrive/GPS/Custamized_App_08_09_17/tool/libgcc.a(_addsub_sf.o)
 .debug_frame   0x0000000000000070       0x28 /cygdrive/d/Pendrive/GPS/Custamized_App_08_09_17/tool/libgcc.a(_mul_sf.o)
 .debug_frame   0x0000000000000098       0x30 /cygdrive/d/Pendrive/GPS/Custamized_App_08_09_17/tool/libgcc.a(_div_sf.o)
 .debug_frame   0x00000000000000c8       0x30 /cygdrive/d/Pendrive/GPS/Custamized_App_08_09_17/tool/libgcc.a(_si_to_sf.o)
 .debug_frame   0x00000000000000f8       0x20 /cygdrive/d/Pendrive/GPS/Custamized_App_08_09_17/tool/libgcc.a(_clzsi2.o)
 .debug_frame   0x0000000000000118       0x20 /cygdrive/d/Pendrive/GPS/Custamized_App_08_09_17/tool/libgcc.a(_pack_sf.o)
 .debug_frame   0x0000000000000138       0x20 /cygdrive/d/Pendrive/GPS/Custamized_App_08_09_17/tool/libgcc.a(_unpack_sf.o)

.debug_loc      0x0000000000000000      0x640
 .debug_loc     0x0000000000000000      0x2ab /cygdrive/d/Pendrive/GPS/Custamized_App_08_09_17/tool/libgcc.a(_addsub_sf.o)
 .debug_loc     0x00000000000002ab       0xcf /cygdrive/d/Pendrive/GPS/Custamized_App_08_09_17/tool/libgcc.a(_mul_sf.o)
 .debug_loc     0x000000000000037a       0xd1 /cygdrive/d/Pendrive/GPS/Custamized_App_08_09_17/tool/libgcc.a(_div_sf.o)
 .debug_loc     0x000000000000044b       0x79 /cygdrive/d/Pendrive/GPS/Custamized_App_08_09_17/tool/libgcc.a(_si_to_sf.o)
 .debug_loc     0x00000000000004c4       0x31 /cygdrive/d/Pendrive/GPS/Custamized_App_08_09_17/tool/libgcc.a(_clzsi2.o)
 .debug_loc     0x00000000000004f5       0xd0 /cygdrive/d/Pendrive/GPS/Custamized_App_08_09_17/tool/libgcc.a(_pack_sf.o)
 .debug_loc     0x00000000000005c5       0x7b /cygdrive/d/Pendrive/GPS/Custamized_App_08_09_17/tool/libgcc.a(_unpack_sf.o)

.debug_pubnames
                0x0000000000000000      0x12d
 .debug_pubnames
                0x0000000000000000       0x2c /cygdrive/d/Pendrive/GPS/Custamized_App_08_09_17/tool/libgcc.a(_addsub_sf.o)
 .debug_pubnames
                0x000000000000002c       0x1f /cygdrive/d/Pendrive/GPS/Custamized_App_08_09_17/tool/libgcc.a(_mul_sf.o)
 .debug_pubnames
                0x000000000000004b       0x1f /cygdrive/d/Pendrive/GPS/Custamized_App_08_09_17/tool/libgcc.a(_div_sf.o)
 .debug_pubnames
                0x000000000000006a       0x22 /cygdrive/d/Pendrive/GPS/Custamized_App_08_09_17/tool/libgcc.a(_si_to_sf.o)
 .debug_pubnames
                0x000000000000008c       0x22 /cygdrive/d/Pendrive/GPS/Custamized_App_08_09_17/tool/libgcc.a(_thenan_sf.o)
 .debug_pubnames
                0x00000000000000ae       0x1f /cygdrive/d/Pendrive/GPS/Custamized_App_08_09_17/tool/libgcc.a(_clzsi2.o)
 .debug_pubnames
                0x00000000000000cd       0x1f /cygdrive/d/Pendrive/GPS/Custamized_App_08_09_17/tool/libgcc.a(_pack_sf.o)
 .debug_pubnames
                0x00000000000000ec       0x21 /cygdrive/d/Pendrive/GPS/Custamized_App_08_09_17/tool/libgcc.a(_unpack_sf.o)
 .debug_pubnames
                0x000000000000010d       0x20 /cygdrive/d/Pendrive/GPS/Custamized_App_08_09_17/tool/libgcc.a(_clz.o)

.debug_aranges  0x0000000000000000       0xe0
 .debug_aranges
                0x0000000000000000       0x20 /cygdrive/d/Pendrive/GPS/Custamized_App_08_09_17/tool/libgcc.a(_addsub_sf.o)
 .debug_aranges
                0x0000000000000020       0x20 /cygdrive/d/Pendrive/GPS/Custamized_App_08_09_17/tool/libgcc.a(_mul_sf.o)
 .debug_aranges
                0x0000000000000040       0x20 /cygdrive/d/Pendrive/GPS/Custamized_App_08_09_17/tool/libgcc.a(_div_sf.o)
 .debug_aranges
                0x0000000000000060       0x20 /cygdrive/d/Pendrive/GPS/Custamized_App_08_09_17/tool/libgcc.a(_si_to_sf.o)
 .debug_aranges
                0x0000000000000080       0x20 /cygdrive/d/Pendrive/GPS/Custamized_App_08_09_17/tool/libgcc.a(_clzsi2.o)
 .debug_aranges
                0x00000000000000a0       0x20 /cygdrive/d/Pendrive/GPS/Custamized_App_08_09_17/tool/libgcc.a(_pack_sf.o)
 .debug_aranges
                0x00000000000000c0       0x20 /cygdrive/d/Pendrive/GPS/Custamized_App_08_09_17/tool/libgcc.a(_unpack_sf.o)

.debug_str      0x0000000000000000      0x30d
 .debug_str     0x0000000000000000      0x1ff /cygdrive/d/Pendrive/GPS/Custamized_App_08_09_17/tool/libgcc.a(_addsub_sf.o)
                                        0x247 (size before relaxing)
 .debug_str     0x00000000000001ff       0x2a /cygdrive/d/Pendrive/GPS/Custamized_App_08_09_17/tool/libgcc.a(_mul_sf.o)
                                        0x1fe (size before relaxing)
 .debug_str     0x0000000000000229       0x35 /cygdrive/d/Pendrive/GPS/Custamized_App_08_09_17/tool/libgcc.a(_div_sf.o)
                                        0x209 (size before relaxing)
 .debug_str     0x000000000000025e       0x1e /cygdrive/d/Pendrive/GPS/Custamized_App_08_09_17/tool/libgcc.a(_si_to_sf.o)
                                        0x1b4 (size before relaxing)
 .debug_str     0x0000000000000000      0x179 /cygdrive/d/Pendrive/GPS/Custamized_App_08_09_17/tool/libgcc.a(_thenan_sf.o)
 .debug_str     0x000000000000027c       0x76 /cygdrive/d/Pendrive/GPS/Custamized_App_08_09_17/tool/libgcc.a(_clzsi2.o)
                                        0x165 (size before relaxing)
 .debug_str     0x00000000000002f2       0x10 /cygdrive/d/Pendrive/GPS/Custamized_App_08_09_17/tool/libgcc.a(_pack_sf.o)
                                        0x1d6 (size before relaxing)
 .debug_str     0x0000000000000302        0xb /cygdrive/d/Pendrive/GPS/Custamized_App_08_09_17/tool/libgcc.a(_unpack_sf.o)
                                        0x1b8 (size before relaxing)
 .debug_str     0x0000000000000000      0x148 /cygdrive/d/Pendrive/GPS/Custamized_App_08_09_17/tool/libgcc.a(_clz.o)

.debug_ranges   0x0000000000000000       0x40
 .debug_ranges  0x0000000000000000       0x28 /cygdrive/d/Pendrive/GPS/Custamized_App_08_09_17/tool/libgcc.a(_mul_sf.o)
 .debug_ranges  0x0000000000000028       0x18 /cygdrive/d/Pendrive/GPS/Custamized_App_08_09_17/tool/libgcc.a(_si_to_sf.o)
